(dp1
V#refollowjp
p2
(dp3
V#news
p4
I1
sV#Obama
p5
I1
sV#rt
p6
I1
ssV#Verl
p7
(dp8
V#Prediction
p9
I1
sV#Bochum
p10
I1
ssV#Brugge
p11
(dp12
V#Prediction
p13
I1
sV#Sporting
p14
I1
ssV#Inter
p15
(dp16
V#Prediction
p17
I1
sV#HJK
p18
I1
ssV#Obamacare
p19
(dp20
V#Progressive
p21
I1
sV#UniteBlue
p22
I1
ssV#TopProg
p23
(dp24
V#tcot
p25
I2
sV#LibCrib
p26
I2
sV#UniteBlue
p27
I2
sV#p2
p28
I2
sV#politics
p29
I2
ssV#BBCAN3
p30
(dp31
V#prediction
p32
I3
ssg10
(dp33
g9
I1
sg7
I1
ssV#gopfail
p34
(dp35
V#tcot
p36
I1
sV#UniteBlue
p37
I1
sV#StandWithRand
p38
I1
ssV#AlQaeda
p39
(dp40
V#SaudiArabia
p41
I1
sV#Obama
p42
I1
sV#osamabinladen
p43
I1
ssg14
(dp44
g11
I1
sg13
I1
ssV#pacers
p45
(dp46
V#sunday
p47
I1
sV#december
p48
I1
sV#preview
p49
I1
sV#indiana
p50
I1
sV#oklahoma
p51
I1
sV#prediction
p52
I1
sV#thunder
p53
I1
ssV#HillaryClinton
p54
(dp55
V#Obama
p56
I1
ssg6
(dp57
g2
I1
sg4
I1
sg5
I1
ssV#globalwarming
p58
(dp59
V#Obama
p60
I1
ssV#1A
p61
(dp62
V#Hillary
p63
I1
sV#Obama
p64
I1
ssV#TPP
p65
(dp66
V#Obama's
p67
I1
sV#1u
p68
I1
ssV#Quantum
p69
(dp70
V#prediction
p71
I1
sV#calculations
p72
I1
ssg63
(dp73
g61
I1
sg64
I1
ssg51
(dp74
g47
I1
sg48
I1
sg49
I1
sg50
I1
sg45
I1
sg52
I1
sg53
I1
ssg41
(dp75
g39
I1
sg42
I1
sg43
I1
ssg49
(dp76
g47
I1
sg48
I1
sg50
I1
sg51
I1
sg45
I1
sg52
I1
sg53
I1
ssV#Vestsjaelland
p77
(dp78
V#Prediction
p79
I1
sV#Midtjylland
p80
I1
ssg32
(dp81
g47
I1
sg48
I1
sg49
I1
sg69
I1
sg50
I1
sg30
I3
sg51
I1
sg45
I1
sg72
I1
sg53
I1
ssg72
(dp82
g69
I1
sg71
I1
ssV#Obama
p83
(dp84
V#Putin
p85
I1
sg2
I1
sg4
I1
sg6
I1
sV#KellyFile
p86
I1
sV#alQaeda
p87
I1
sg63
I1
sg58
I1
sV#Benghazi
p88
I1
sg43
I1
sg54
I1
sg41
I1
sg61
I1
sg39
I1
ssg68
(dp89
g67
I1
sg65
I1
ssV#gu\u2026
p90
(dp91
V#UniteBlue
p92
I1
ssg85
(dp93
V#Obama
p94
I1
ssg4
(dp95
g2
I1
sg5
I1
sg6
I1
ssg48
(dp96
g47
I1
sg49
I1
sg50
I1
sg51
I1
sg45
I1
sg52
I1
sg53
I1
ssV#2016Elections
p97
(dp98
V#AINF
p99
I1
sV#KochBros
p100
I1
sV#UniteBlue
p101
I1
sV#wakeupnow
p102
I1
ssg50
(dp103
g47
I1
sg48
I1
sg49
I1
sg51
I1
sg45
I1
sg52
I1
sg53
I1
ssg102
(dp104
g99
I1
sg97
I1
sg100
I1
sg101
I1
ssg88
(dp105
g87
I1
sg83
I1
ssg67
(dp106
g65
I1
sg68
I1
ssg17
(dp107
g14
I1
sg7
I1
sg11
I1
sg15
I1
sg10
I1
sg18
I1
sg77
I1
sg80
I1
ssg80
(dp108
g77
I1
sg79
I1
ssg38
(dp109
g36
I1
sg37
I1
sg34
I1
ssg53
(dp110
g47
I1
sg48
I1
sg49
I1
sg50
I1
sg51
I1
sg45
I1
sg52
I1
ssg47
(dp111
g48
I1
sg49
I1
sg50
I1
sg51
I1
sg45
I1
sg52
I1
sg53
I1
ssg43
(dp112
g39
I1
sg41
I1
sg42
I1
ssg100
(dp113
g99
I1
sg97
I1
sg101
I1
sg102
I1
ssg36
(dp114
g37
I3
sg23
I2
sg34
I1
sg26
I2
sg29
I2
sg28
I2
sg38
I1
ssg21
(dp115
g19
I1
sg22
I1
ssg22
(dp116
g100
I1
sg36
I3
sg19
I1
sV#TNTweeters
p117
I1
sg23
I2
sg102
I1
sg34
I1
sg26
I3
sg99
I2
sV#Progressives
p118
I1
sg29
I2
sg28
I2
sg21
I1
sg97
I1
sg38
I1
sg90
I1
ssg117
(dp119
V#AINF
p120
I1
sV#UniteBlue
p121
I1
ssg118
(dp122
V#LibCrib
p123
I1
sV#UniteBlue
p124
I1
ssg86
(dp125
V#Obama
p126
I1
ssg26
(dp127
g25
I2
sg27
I3
sg23
I2
sg118
I1
sg29
I2
sg28
I2
ssg18
(dp128
g15
I1
sg17
I1
ssg29
(dp129
g25
I2
sg23
I2
sg26
I2
sg27
I2
sg28
I2
ssg99
(dp130
g97
I1
sg100
I1
sg101
I2
sg102
I1
sg117
I1
ssg28
(dp131
g25
I2
sg23
I2
sg26
I2
sg27
I2
sg29
I2
ssg87
(dp132
g83
I1
sg88
I1
ss.